; Function Attrs: nounwind uwtable
define internal ptr @readline_parse_and_bind(ptr readnone captures(none) %0, ptr noundef %1) #0 {
  %3 = tail call ptr @PyUnicode_EncodeLocale(ptr noundef %1, ptr noundef nonnull @.str.34) #14
  %4 = icmp eq ptr %3, null
  br i1 %4, label %26, label %5

5:                                                ; preds = %2
  %6 = getelementptr i8, ptr %3, i64 16
  %.val = load i64, ptr %6, align 8, !tbaa !42
  %7 = add i64 %.val, 1
  %8 = tail call ptr @PyMem_Malloc(i64 noundef %7) #14
  %9 = icmp eq ptr %8, null
  br i1 %9, label %10, label %17

10:                                               ; preds = %5
  %11 = load i32, ptr %3, align 8, !tbaa !25
  %.not.i13 = icmp sgt i32 %11, -1
  br i1 %.not.i13, label %12, label %Py_DECREF.exit14

12:                                               ; preds = %10
  %13 = add nsw i32 %11, -1
  store i32 %13, ptr %3, align 8, !tbaa !25
  %14 = icmp eq i32 %13, 0
  br i1 %14, label %15, label %Py_DECREF.exit14

15:                                               ; preds = %12
  tail call void @_Py_Dealloc(ptr noundef nonnull %3) #14
  br label %Py_DECREF.exit14

Py_DECREF.exit14:                                 ; preds = %10, %12, %15
  %16 = tail call ptr @PyErr_NoMemory() #14
  br label %26

17:                                               ; preds = %5
  %18 = getelementptr inbounds nuw i8, ptr %3, i64 32
  %19 = tail call ptr @strcpy(ptr noundef nonnull dereferenceable(1) %8, ptr noundef nonnull dereferenceable(1) %18) #14
  %20 = load i32, ptr %3, align 8, !tbaa !25
  %.not.i = icmp sgt i32 %20, -1
  br i1 %.not.i, label %21, label %Py_DECREF.exit

21:                                               ; preds = %17
  %22 = add nsw i32 %20, -1
  store i32 %22, ptr %3, align 8, !tbaa !25
  %23 = icmp eq i32 %22, 0
  br i1 %23, label %24, label %Py_DECREF.exit

24:                                               ; preds = %21
  tail call void @_Py_Dealloc(ptr noundef nonnull %3) #14
  br label %Py_DECREF.exit

Py_DECREF.exit:                                   ; preds = %17, %21, %24
  %25 = tail call i32 @rl_parse_and_bind(ptr noundef nonnull %8) #14
  tail call void @PyMem_Free(ptr noundef nonnull %8) #14
  br label %26

26:                                               ; preds = %2, %Py_DECREF.exit, %Py_DECREF.exit14
  %.0 = phi ptr [ %16, %Py_DECREF.exit14 ], [ @_Py_NoneStruct, %Py_DECREF.exit ], [ null, %2 ]
  ret ptr %.0
}